; Function Attrs: nounwind uwtable
define i32 @pmix_bfrops_base_copy(ptr noundef readonly captures(none) %0, ptr noundef %1, ptr noundef %2, i16 noundef zeroext %3) local_unnamed_addr #0 {
  %5 = icmp eq ptr %1, null
  %6 = icmp eq ptr %2, null
  %or.cond = or i1 %5, %6
  br i1 %or.cond, label %7, label %9

7:                                                ; preds = %4
  %8 = tail call ptr @PMIx_Error_string(i32 noundef -27) #23
  tail call void (i32, ptr, ...) @pmix_output(i32 noundef 0, ptr noundef nonnull @.str, ptr noundef %8, ptr noundef nonnull @.str.1, i32 noundef 43) #23
  br label %24

9:                                                ; preds = %4
  %10 = zext i16 %3 to i32
  %11 = getelementptr inbounds nuw i8, ptr %0, i64 128
  %12 = load i32, ptr %11, align 8, !tbaa !3
  %.not.i = icmp sgt i32 %12, %10
  br i1 %.not.i, label %pmix_pointer_array_get_item.exit, label %pmix_pointer_array_get_item.exit.thread, !prof !13

pmix_pointer_array_get_item.exit:                 ; preds = %9
  %13 = getelementptr inbounds nuw i8, ptr %0, i64 152
  %14 = load ptr, ptr %13, align 8, !tbaa !14
  %15 = zext i16 %3 to i64
  %16 = getelementptr inbounds nuw ptr, ptr %14, i64 %15
  %17 = load ptr, ptr %16, align 8, !tbaa !15
  %18 = icmp eq ptr %17, null
  br i1 %18, label %pmix_pointer_array_get_item.exit.thread, label %20

pmix_pointer_array_get_item.exit.thread:          ; preds = %9, %pmix_pointer_array_get_item.exit
  %19 = tail call ptr @PMIx_Error_string(i32 noundef -16) #23
  tail call void (i32, ptr, ...) @pmix_output(i32 noundef 0, ptr noundef nonnull @.str, ptr noundef %19, ptr noundef nonnull @.str.1, i32 noundef 49) #23
  br label %24

20:                                               ; preds = %pmix_pointer_array_get_item.exit
  %21 = getelementptr inbounds nuw i8, ptr %17, i64 152
  %22 = load ptr, ptr %21, align 8, !tbaa !16
  %23 = tail call i32 %22(ptr noundef nonnull %1, ptr noundef nonnull %2, i16 noundef zeroext %3) #23
  br label %24

24:                                               ; preds = %20, %pmix_pointer_array_get_item.exit.thread, %7
  %.0 = phi i32 [ -27, %7 ], [ -16, %pmix_pointer_array_get_item.exit.thread ], [ %23, %20 ]
  ret i32 %.0
}